; Function Attrs: mustprogress uwtable
define noundef zeroext i8 @_ZN6duckdb16PipelineExecutor7GetDataERNS_9DataChunkERNS_19OperatorSourceInputE(ptr noundef nonnull align 8 dereferenceable(505) %0, ptr noundef nonnull align 8 dereferenceable(64) %1, ptr noundef nonnull align 8 dereferenceable(24) %2) local_unnamed_addr #0 align 2 {
  %4 = load ptr, ptr %0, align 8, !tbaa !767
  %5 = getelementptr inbounds nuw i8, ptr %4, i64 32
  tail call void @_ZNK6duckdb12optional_ptrINS_16PhysicalOperatorELb1EE10CheckValidEv(ptr noundef nonnull align 8 dereferenceable(8) %5)
  %6 = load ptr, ptr %5, align 8, !tbaa !401
  %7 = getelementptr inbounds nuw i8, ptr %0, i64 176
  %8 = load ptr, ptr %6, align 8, !tbaa !54
  %9 = getelementptr inbounds nuw i8, ptr %8, i64 136
  %10 = load ptr, ptr %9, align 8
  %11 = tail call noundef zeroext i8 %10(ptr noundef nonnull align 8 dereferenceable(128) %6, ptr noundef nonnull align 8 dereferenceable(24) %7, ptr noundef nonnull align 8 dereferenceable(64) %1, ptr noundef nonnull align 8 dereferenceable(24) %2)
  ret i8 %11
}